target datalayout = "e-m:e-p270:32:32-p271:32:32-p272:64:64-i64:64-i128:128-f80:128-n8:16:32:64-S128"
target triple = "x86_64-pc-linux-gnu"

%"class.std::__cxx11::basic_string" = type { %"struct.std::__cxx11::basic_string<char>::_Alloc_hider", i64, %union.anon }
%"struct.std::__cxx11::basic_string<char>::_Alloc_hider" = type { ptr }
%union.anon = type { i64, [8 x i8] }
%"class.std::basic_ostream" = type { ptr, %"class.std::basic_ios" }
%"class.std::basic_ios" = type { %"class.std::ios_base", ptr, i8, i8, ptr, ptr, ptr, ptr }
%"class.std::ios_base" = type { ptr, i64, i64, i32, i32, i32, ptr, %"struct.std::ios_base::_Words", [8 x %"struct.std::ios_base::_Words"], i32, ptr, %"class.std::locale" }
%"struct.std::ios_base::_Words" = type { ptr, i64 }
%"class.std::locale" = type { ptr }
%"class.std::basic_string_view" = type { i64, ptr }
%"struct.PXR_INTERNAL_NS_pegtl::position" = type { i64, i64, i64, %"class.std::__cxx11::basic_string" }
%"struct.PXR_INTERNAL_NS_pegtl::tracer" = type { i32, i64, %"class.std::vector.342", %"struct.PXR_INTERNAL_NS_pegtl::position" }
%"class.std::vector.342" = type { %"struct.std::_Vector_base.343" }
%"struct.std::_Vector_base.343" = type { %"struct.std::_Vector_base<unsigned long, std::allocator<unsigned long>>::_Vector_impl" }
%"struct.std::_Vector_base<unsigned long, std::allocator<unsigned long>>::_Vector_impl" = type { %"struct.std::_Vector_base<unsigned long, std::allocator<unsigned long>>::_Vector_impl_data" }
%"struct.std::_Vector_base<unsigned long, std::allocator<unsigned long>>::_Vector_impl_data" = type { ptr, ptr, ptr }
%"struct.std::_Setw" = type { i32 }

@_ZSt4cerr = external global %"class.std::basic_ostream", align 8
@_ZN21PXR_INTERNAL_NS_pegtl13tracer_traitsILb1ELb1ELm2ELm8EE10ansi_resetE = linkonce_odr constant %"class.std::basic_string_view" { i64 3, ptr @.str.45 }, comdat, align 8
@_ZN21PXR_INTERNAL_NS_pegtl13tracer_traitsILb1ELb1ELm2ELm8EE9ansi_ruleE = linkonce_odr constant %"class.std::basic_string_view" { i64 5, ptr @.str.46 }, comdat, align 8
@_ZN21PXR_INTERNAL_NS_pegtl13tracer_traitsILb1ELb1ELm2ELm8EE10ansi_raiseE = linkonce_odr constant %"class.std::basic_string_view" { i64 7, ptr @.str.57 }, comdat, align 8
@.str.56 = private unnamed_addr constant [6 x i8] c"raise\00", align 1
@.str.95 = private unnamed_addr constant [136 x i8] c"std::string_view PXR_INTERNAL_NS_pegtl::demangle() [T = pxrInternal_v0_24__pxrReserved__::(anonymous namespace)::QuotedStringEnd<'\\''>]\00", align 1
@__const._ZN21PXR_INTERNAL_NS_pegtl8demangleIN32pxrInternal_v0_24__pxrReserved__12_GLOBAL__N_115QuotedStringEndILc39EEEEESt17basic_string_viewIcSt11char_traitsIcEEv.sv = private unnamed_addr constant %"class.std::basic_string_view" { i64 135, ptr @.str.95 }, align 8

; Function Attrs: mustprogress nounwind uwtable
define linkonce_odr void @_ZNSt17basic_string_viewIcSt11char_traitsIcEEC2EPKcm(ptr noundef nonnull align 8 dereferenceable(16) %0, ptr noundef %1, i64 noundef %2) unnamed_addr #5 comdat align 2 {
  %4 = alloca ptr, align 8
  %5 = alloca ptr, align 8
  %6 = alloca i64, align 8
  store ptr %0, ptr %4, align 8
  store ptr %1, ptr %5, align 8
  store i64 %2, ptr %6, align 8
  %7 = load ptr, ptr %4, align 8
  %8 = getelementptr inbounds nuw %"class.std::basic_string_view", ptr %7, i32 0, i32 0
  %9 = load i64, ptr %6, align 8
  store i64 %9, ptr %8, align 8
  %10 = getelementptr inbounds nuw %"class.std::basic_string_view", ptr %7, i32 0, i32 1
  %11 = load ptr, ptr %5, align 8
  store ptr %11, ptr %10, align 8
  ret void
}

; Function Attrs: mustprogress nounwind uwtable
define linkonce_odr noundef i64 @_ZNKSt17basic_string_viewIcSt11char_traitsIcEE4sizeEv(ptr noundef nonnull align 8 dereferenceable(16) %0) #5 comdat align 2 {
  %2 = alloca ptr, align 8
  store ptr %0, ptr %2, align 8
  %3 = load ptr, ptr %2, align 8
  %4 = getelementptr inbounds nuw %"class.std::basic_string_view", ptr %3, i32 0, i32 0
  %5 = load i64, ptr %4, align 8
  ret i64 %5
}

; Function Attrs: mustprogress nounwind uwtable
define linkonce_odr noundef ptr @_ZNKSt17basic_string_viewIcSt11char_traitsIcEE4dataEv(ptr noundef nonnull align 8 dereferenceable(16) %0) #5 comdat align 2 {
  %2 = alloca ptr, align 8
  store ptr %0, ptr %2, align 8
  %3 = load ptr, ptr %2, align 8
  %4 = getelementptr inbounds nuw %"class.std::basic_string_view", ptr %3, i32 0, i32 1
  %5 = load ptr, ptr %4, align 8
  ret ptr %5
}

; Function Attrs: mustprogress nounwind uwtable
define linkonce_odr noundef i64 @_ZNKSt6vectorImSaImEE4sizeEv(ptr noundef nonnull align 8 dereferenceable(24) %0) #5 comdat align 2 {
  %2 = alloca ptr, align 8
  store ptr %0, ptr %2, align 8
  %3 = load ptr, ptr %2, align 8
  %4 = getelementptr inbounds nuw %"struct.std::_Vector_base.343", ptr %3, i32 0, i32 0
  %5 = getelementptr inbounds nuw %"struct.std::_Vector_base<unsigned long, std::allocator<unsigned long>>::_Vector_impl_data", ptr %4, i32 0, i32 1
  %6 = load ptr, ptr %5, align 8
  %7 = getelementptr inbounds nuw %"struct.std::_Vector_base.343", ptr %3, i32 0, i32 0
  %8 = getelementptr inbounds nuw %"struct.std::_Vector_base<unsigned long, std::allocator<unsigned long>>::_Vector_impl_data", ptr %7, i32 0, i32 0
  %9 = load ptr, ptr %8, align 8
  %10 = ptrtoint ptr %6 to i64
  %11 = ptrtoint ptr %9 to i64
  %12 = sub i64 %10, %11
  %13 = sdiv exact i64 %12, 8
  ret i64 %13
}

; Function Attrs: mustprogress nounwind uwtable
define internal { i64, ptr } @_ZN21PXR_INTERNAL_NS_pegtl8demangleIN32pxrInternal_v0_24__pxrReserved__12_GLOBAL__N_115QuotedStringEndILc39EEEEESt17basic_string_viewIcSt11char_traitsIcEEv() #5 {
  %1 = alloca %"class.std::basic_string_view", align 8
  %2 = alloca %"class.std::basic_string_view", align 8
  %3 = alloca ptr, align 8
  call void @llvm.memcpy.p0.p0.i64(ptr align 8 %2, ptr align 8 @__const._ZN21PXR_INTERNAL_NS_pegtl8demangleIN32pxrInternal_v0_24__pxrReserved__12_GLOBAL__N_115QuotedStringEndILc39EEEEESt17basic_string_viewIcSt11char_traitsIcEEv.sv, i64 16, i1 false)
  store ptr getelementptr (i8, ptr @.str.95, i64 54), ptr %3, align 8
  %4 = call noundef ptr @_ZNKSt17basic_string_viewIcSt11char_traitsIcEE4dataEv(ptr noundef nonnull align 8 dereferenceable(16) %2) #3
  %5 = call noundef i64 @_ZNKSt17basic_string_viewIcSt11char_traitsIcEE4sizeEv(ptr noundef nonnull align 8 dereferenceable(16) %2) #3
  %6 = getelementptr inbounds i8, ptr %4, i64 %5
  %7 = ptrtoint ptr %6 to i64
  %8 = sub i64 %7, ptrtoint (ptr getelementptr (i8, ptr @.str.95, i64 54) to i64)
  %9 = sub nsw i64 %8, 3
  call void @_ZNSt17basic_string_viewIcSt11char_traitsIcEEC2EPKcm(ptr noundef nonnull align 8 dereferenceable(16) %1, ptr noundef getelementptr inbounds (i8, ptr getelementptr (i8, ptr @.str.95, i64 54), i64 2), i64 noundef %9) #3
  %10 = load { i64, ptr }, ptr %1, align 8
  ret { i64, ptr } %10
}

; Function Attrs: mustprogress uwtable
define linkonce_odr noundef nonnull align 8 dereferenceable(8) ptr @_ZStlsIcSt11char_traitsIcEERSt13basic_ostreamIT_T0_ES6_St17basic_string_viewIS3_S4_E(ptr noundef nonnull align 8 dereferenceable(8) %0, i64 %1, ptr %2) #4 comdat {
  %4 = alloca %"class.std::basic_string_view", align 8
  %5 = alloca ptr, align 8
  %6 = getelementptr inbounds nuw { i64, ptr }, ptr %4, i32 0, i32 0
  store i64 %1, ptr %6, align 8
  %7 = getelementptr inbounds nuw { i64, ptr }, ptr %4, i32 0, i32 1
  store ptr %2, ptr %7, align 8
  store ptr %0, ptr %5, align 8
  %8 = load ptr, ptr %5, align 8
  %9 = call noundef ptr @_ZNKSt17basic_string_viewIcSt11char_traitsIcEE4dataEv(ptr noundef nonnull align 8 dereferenceable(16) %4) #3
  %10 = call noundef i64 @_ZNKSt17basic_string_viewIcSt11char_traitsIcEE4sizeEv(ptr noundef nonnull align 8 dereferenceable(16) %4) #3
  %11 = call noundef nonnull align 8 dereferenceable(8) ptr @_ZSt16__ostream_insertIcSt11char_traitsIcEERSt13basic_ostreamIT_T0_ES6_PKS3_l(ptr noundef nonnull align 8 dereferenceable(8) %8, ptr noundef %9, i64 noundef %10)
  ret ptr %11
}

; Function Attrs: mustprogress nounwind uwtable
define linkonce_odr i32 @_ZSt4setwi(i32 noundef %0) #5 comdat {
  %2 = alloca %"struct.std::_Setw", align 4
  %3 = alloca i32, align 4
  store i32 %0, ptr %3, align 4
  %4 = getelementptr inbounds nuw %"struct.std::_Setw", ptr %2, i32 0, i32 0
  %5 = load i32, ptr %3, align 4
  store i32 %5, ptr %4, align 4
  %6 = getelementptr inbounds nuw %"struct.std::_Setw", ptr %2, i32 0, i32 0
  %7 = load i32, ptr %6, align 4
  ret i32 %7
}

; Function Attrs: mustprogress nounwind uwtable
define linkonce_odr noundef i64 @_ZNK21PXR_INTERNAL_NS_pegtl6tracerINS_13tracer_traitsILb1ELb1ELm2ELm8EEEE6indentEv(ptr noundef nonnull align 8 dereferenceable(96) %0) #5 comdat align 2 {
  %2 = alloca ptr, align 8
  store ptr %0, ptr %2, align 8
  %3 = load ptr, ptr %2, align 8
  %4 = getelementptr inbounds nuw %"struct.PXR_INTERNAL_NS_pegtl::tracer", ptr %3, i32 0, i32 2
  %5 = call noundef i64 @_ZNKSt6vectorImSaImEE4sizeEv(ptr noundef nonnull align 8 dereferenceable(24) %4) #3
  %6 = mul i64 2, %5
  %7 = add i64 8, %6
  ret i64 %7
}

; Function Attrs: mustprogress uwtable
define internal void @_ZN21PXR_INTERNAL_NS_pegtl6tracerINS_13tracer_traitsILb1ELb1ELm2ELm8EEEE5raiseIN32pxrInternal_v0_24__pxrReserved__12_GLOBAL__N_115QuotedStringEndILc39EEENS_12memory_inputILNS_13tracking_modeE0ENS_5ascii3eol7lf_crlfENSt7__cxx1112basic_stringIcSt11char_traitsIcESaIcEEEEEJRNS6_13ParserContextEEEEvRKT0_DpOT1_(ptr noundef nonnull align 8 dereferenceable(96) %0, ptr noundef nonnull align 8 dereferenceable(88) %1, ptr noundef nonnull align 8 dereferenceable(24) %2) #4 align 2 {
  %4 = alloca ptr, align 8
  %5 = alloca ptr, align 8
  %6 = alloca ptr, align 8
  %7 = alloca %"struct.std::_Setw", align 4
  %8 = alloca %"class.std::basic_string_view", align 8
  %9 = alloca %"class.std::basic_string_view", align 8
  %10 = alloca %"class.std::basic_string_view", align 8
  %11 = alloca %"class.std::basic_string_view", align 8
  %12 = alloca %"class.std::basic_string_view", align 8
  store ptr %0, ptr %4, align 8
  store ptr %1, ptr %5, align 8
  store ptr %2, ptr %6, align 8
  %13 = load ptr, ptr %4, align 8
  %14 = call noundef i64 @_ZNK21PXR_INTERNAL_NS_pegtl6tracerINS_13tracer_traitsILb1ELb1ELm2ELm8EEEE6indentEv(ptr noundef nonnull align 8 dereferenceable(96) %13) #3
  %15 = trunc i64 %14 to i32
  %16 = call i32 @_ZSt4setwi(i32 noundef %15)
  %17 = getelementptr inbounds nuw %"struct.std::_Setw", ptr %7, i32 0, i32 0
  store i32 %16, ptr %17, align 4
  %18 = getelementptr inbounds nuw %"struct.std::_Setw", ptr %7, i32 0, i32 0
  %19 = load i32, ptr %18, align 4
  %20 = call noundef nonnull align 8 dereferenceable(8) ptr @_ZStlsIcSt11char_traitsIcEERSt13basic_ostreamIT_T0_ES6_St5_Setw(ptr noundef nonnull align 8 dereferenceable(8) @_ZSt4cerr, i32 %19)
  %21 = call noundef nonnull align 8 dereferenceable(8) ptr @_ZStlsISt11char_traitsIcEERSt13basic_ostreamIcT_ES5_c(ptr noundef nonnull align 8 dereferenceable(8) %20, i8 noundef signext 32)
  call void @llvm.memcpy.p0.p0.i64(ptr align 8 %8, ptr align 8 @_ZN21PXR_INTERNAL_NS_pegtl13tracer_traitsILb1ELb1ELm2ELm8EE10ansi_raiseE, i64 16, i1 false)
  %22 = getelementptr inbounds nuw { i64, ptr }, ptr %8, i32 0, i32 0
  %23 = load i64, ptr %22, align 8
  %24 = getelementptr inbounds nuw { i64, ptr }, ptr %8, i32 0, i32 1
  %25 = load ptr, ptr %24, align 8
  %26 = call noundef nonnull align 8 dereferenceable(8) ptr @_ZStlsIcSt11char_traitsIcEERSt13basic_ostreamIT_T0_ES6_St17basic_string_viewIS3_S4_E(ptr noundef nonnull align 8 dereferenceable(8) %21, i64 %23, ptr %25)
  %27 = call noundef nonnull align 8 dereferenceable(8) ptr @_ZStlsISt11char_traitsIcEERSt13basic_ostreamIcT_ES5_PKc(ptr noundef nonnull align 8 dereferenceable(8) %26, ptr noundef @.str.56)
  call void @llvm.memcpy.p0.p0.i64(ptr align 8 %9, ptr align 8 @_ZN21PXR_INTERNAL_NS_pegtl13tracer_traitsILb1ELb1ELm2ELm8EE10ansi_resetE, i64 16, i1 false)
  %28 = getelementptr inbounds nuw { i64, ptr }, ptr %9, i32 0, i32 0
  %29 = load i64, ptr %28, align 8
  %30 = getelementptr inbounds nuw { i64, ptr }, ptr %9, i32 0, i32 1
  %31 = load ptr, ptr %30, align 8
  %32 = call noundef nonnull align 8 dereferenceable(8) ptr @_ZStlsIcSt11char_traitsIcEERSt13basic_ostreamIT_T0_ES6_St17basic_string_viewIS3_S4_E(ptr noundef nonnull align 8 dereferenceable(8) %27, i64 %29, ptr %31)
  %33 = call noundef nonnull align 8 dereferenceable(8) ptr @_ZStlsISt11char_traitsIcEERSt13basic_ostreamIcT_ES5_c(ptr noundef nonnull align 8 dereferenceable(8) %32, i8 noundef signext 32)
  call void @llvm.memcpy.p0.p0.i64(ptr align 8 %10, ptr align 8 @_ZN21PXR_INTERNAL_NS_pegtl13tracer_traitsILb1ELb1ELm2ELm8EE9ansi_ruleE, i64 16, i1 false)
  %34 = getelementptr inbounds nuw { i64, ptr }, ptr %10, i32 0, i32 0
  %35 = load i64, ptr %34, align 8
  %36 = getelementptr inbounds nuw { i64, ptr }, ptr %10, i32 0, i32 1
  %37 = load ptr, ptr %36, align 8
  %38 = call noundef nonnull align 8 dereferenceable(8) ptr @_ZStlsIcSt11char_traitsIcEERSt13basic_ostreamIT_T0_ES6_St17basic_string_viewIS3_S4_E(ptr noundef nonnull align 8 dereferenceable(8) %33, i64 %35, ptr %37)
  %39 = call { i64, ptr } @_ZN21PXR_INTERNAL_NS_pegtl8demangleIN32pxrInternal_v0_24__pxrReserved__12_GLOBAL__N_115QuotedStringEndILc39EEEEESt17basic_string_viewIcSt11char_traitsIcEEv() #3
  %40 = getelementptr inbounds nuw { i64, ptr }, ptr %11, i32 0, i32 0
  %41 = extractvalue { i64, ptr } %39, 0
  store i64 %41, ptr %40, align 8
  %42 = getelementptr inbounds nuw { i64, ptr }, ptr %11, i32 0, i32 1
  %43 = extractvalue { i64, ptr } %39, 1
  store ptr %43, ptr %42, align 8
  %44 = getelementptr inbounds nuw { i64, ptr }, ptr %11, i32 0, i32 0
  %45 = load i64, ptr %44, align 8
  %46 = getelementptr inbounds nuw { i64, ptr }, ptr %11, i32 0, i32 1
  %47 = load ptr, ptr %46, align 8
  %48 = call noundef nonnull align 8 dereferenceable(8) ptr @_ZStlsIcSt11char_traitsIcEERSt13basic_ostreamIT_T0_ES6_St17basic_string_viewIS3_S4_E(ptr noundef nonnull align 8 dereferenceable(8) %38, i64 %45, ptr %47)
  call void @llvm.memcpy.p0.p0.i64(ptr align 8 %12, ptr align 8 @_ZN21PXR_INTERNAL_NS_pegtl13tracer_traitsILb1ELb1ELm2ELm8EE10ansi_resetE, i64 16, i1 false)
  %49 = getelementptr inbounds nuw { i64, ptr }, ptr %12, i32 0, i32 0
  %50 = load i64, ptr %49, align 8
  %51 = getelementptr inbounds nuw { i64, ptr }, ptr %12, i32 0, i32 1
  %52 = load ptr, ptr %51, align 8
  %53 = call noundef nonnull align 8 dereferenceable(8) ptr @_ZStlsIcSt11char_traitsIcEERSt13basic_ostreamIT_T0_ES6_St17basic_string_viewIS3_S4_E(ptr noundef nonnull align 8 dereferenceable(8) %48, i64 %50, ptr %52)
  %54 = call noundef nonnull align 8 dereferenceable(8) ptr @_ZStlsISt11char_traitsIcEERSt13basic_ostreamIcT_ES5_c(ptr noundef nonnull align 8 dereferenceable(8) %53, i8 noundef signext 10)
  ret void
}